; Function Attrs: nounwind uwtable
define internal { i64, i64 } @js_std_file_getByte(ptr noundef %0, i64 %1, i64 %2, i32 %3, ptr nocapture readnone %4) #0 {
  %6 = load i32, ptr @js_std_file_class_id, align 4
  %7 = tail call ptr @JS_GetOpaque2(ptr noundef %0, i64 %1, i64 %2, i32 noundef %6) #29
  %.not.i = icmp eq ptr %7, null
  br i1 %.not.i, label %js_std_file_get.exit.thread, label %8

8:                                                ; preds = %5
  %9 = load ptr, ptr %7, align 8
  %.not9.i = icmp eq ptr %9, null
  br i1 %.not9.i, label %10, label %js_std_file_get.exit

10:                                               ; preds = %8
  %11 = tail call { i64, i64 } (ptr, ptr, ...) @JS_ThrowTypeError(ptr noundef %0, ptr noundef nonnull @.str.41) #29
  br label %js_std_file_get.exit.thread

js_std_file_get.exit:                             ; preds = %8
  %12 = tail call i32 @fgetc(ptr noundef nonnull %9)
  %13 = zext i32 %12 to i64
  br label %js_std_file_get.exit.thread

js_std_file_get.exit.thread:                      ; preds = %5, %10, %js_std_file_get.exit
  %.sroa.04.0 = phi i64 [ %13, %js_std_file_get.exit ], [ 0, %10 ], [ 0, %5 ]
  %.sroa.3.sroa.2.0 = phi i64 [ 0, %js_std_file_get.exit ], [ 6, %10 ], [ 6, %5 ]
  %.fca.0.insert = insertvalue { i64, i64 } poison, i64 %.sroa.04.0, 0
  %.fca.1.insert = insertvalue { i64, i64 } %.fca.0.insert, i64 %.sroa.3.sroa.2.0, 1
  ret { i64, i64 } %.fca.1.insert
}